; Function Attrs: mustprogress nofree norecurse nosync nounwind willreturn memory(readwrite, inaccessiblemem: none) uwtable
define void @N_VSetArrayPointer_Serial(ptr noundef %0, ptr noundef readonly captures(none) %1) #6 {
  %3 = load ptr, ptr %1, align 8, !tbaa !54
  %4 = load i64, ptr %3, align 8, !tbaa !55
  %5 = icmp sgt i64 %4, 0
  br i1 %5, label %6, label %8

6:                                                ; preds = %2
  %7 = getelementptr inbounds nuw i8, ptr %3, i64 16
  store ptr %0, ptr %7, align 8, !tbaa !61
  br label %8

8:                                                ; preds = %6, %2
  ret void
}